; Function Attrs: nounwind uwtable
define dso_local noundef zeroext i1 @Curl_meets_timecondition(ptr noundef %0, i64 noundef %1) local_unnamed_addr #0 {
  %3 = icmp eq i64 %1, 0
  br i1 %3, label %38, label %4

4:                                                ; preds = %2
  %5 = getelementptr inbounds nuw i8, ptr %0, i64 1312
  %6 = load i64, ptr %5, align 8, !tbaa !15
  %7 = icmp eq i64 %6, 0
  br i1 %7, label %38, label %8

8:                                                ; preds = %4
  %9 = getelementptr inbounds nuw i8, ptr %0, i64 1320
  %10 = load i8, ptr %9, align 8, !tbaa !83
  %cond = icmp eq i8 %10, 2
  br i1 %cond, label %23, label %11

11:                                               ; preds = %8
  %.not = icmp sgt i64 %1, %6
  br i1 %.not, label %38, label %12

12:                                               ; preds = %11
  %13 = getelementptr inbounds nuw i8, ptr %0, i64 2562
  %14 = load i64, ptr %13, align 2
  %15 = and i64 %14, 134217728
  %.not25 = icmp eq i64 %15, 0
  br i1 %.not25, label %.sink.split, label %16

16:                                               ; preds = %12
  %17 = getelementptr inbounds nuw i8, ptr %0, i64 4712
  %18 = load ptr, ptr %17, align 8, !tbaa !84
  %.not26 = icmp eq ptr %18, null
  br i1 %.not26, label %.sink.split.sink.split, label %19

19:                                               ; preds = %16
  %20 = getelementptr inbounds nuw i8, ptr %18, i64 8
  %21 = load i32, ptr %20, align 8, !tbaa !85
  %22 = icmp sgt i32 %21, 0
  br i1 %22, label %.sink.split.sink.split, label %.sink.split

23:                                               ; preds = %8
  %.not27 = icmp slt i64 %1, %6
  br i1 %.not27, label %38, label %24

24:                                               ; preds = %23
  %25 = getelementptr inbounds nuw i8, ptr %0, i64 2562
  %26 = load i64, ptr %25, align 2
  %27 = and i64 %26, 134217728
  %.not29 = icmp eq i64 %27, 0
  br i1 %.not29, label %.sink.split, label %28

28:                                               ; preds = %24
  %29 = getelementptr inbounds nuw i8, ptr %0, i64 4712
  %30 = load ptr, ptr %29, align 8, !tbaa !84
  %.not30 = icmp eq ptr %30, null
  br i1 %.not30, label %.sink.split.sink.split, label %31

31:                                               ; preds = %28
  %32 = getelementptr inbounds nuw i8, ptr %30, i64 8
  %33 = load i32, ptr %32, align 8, !tbaa !85
  %34 = icmp sgt i32 %33, 0
  br i1 %34, label %.sink.split.sink.split, label %.sink.split

.sink.split.sink.split:                           ; preds = %28, %31, %16, %19
  %.str.1.sink = phi ptr [ @.str, %19 ], [ @.str, %16 ], [ @.str.1, %31 ], [ @.str.1, %28 ]
  tail call void (ptr, ptr, ...) @Curl_infof(ptr noundef nonnull %0, ptr noundef nonnull %.str.1.sink) #6
  br label %.sink.split

.sink.split:                                      ; preds = %.sink.split.sink.split, %31, %24, %19, %12
  %35 = getelementptr inbounds nuw i8, ptr %0, i64 5116
  %36 = load i8, ptr %35, align 4
  %37 = or i8 %36, 1
  store i8 %37, ptr %35, align 4
  br label %38

38:                                               ; preds = %.sink.split, %11, %23, %2, %4
  %.0 = phi i1 [ true, %4 ], [ true, %2 ], [ true, %23 ], [ true, %11 ], [ false, %.sink.split ]
  ret i1 %.0
}